target datalayout = "e-m:e-p270:32:32-p271:32:32-p272:64:64-i64:64-i128:128-f80:128-n8:16:32:64-S128"
target triple = "x86_64-pc-linux-gnu"

%struct.SwrContext = type { ptr, i32, ptr, i32, i32, i32, %struct.AVChannelLayout, %struct.AVChannelLayout, %struct.AVChannelLayout, i32, i32, i32, float, float, float, float, float, i32, ptr, i32, %struct.AVChannelLayout, %struct.AVChannelLayout, %struct.AVChannelLayout, i32, i32, %struct.DitherContext, i32, i32, i32, i32, double, i32, double, double, i32, float, float, float, float, float, i64, i32, i32, i32, %struct.AudioData, %struct.AudioData, %struct.AudioData, %struct.AudioData, %struct.AudioData, %struct.AudioData, %struct.AudioData, %struct.AudioData, i32, i32, i32, i32, i64, i64, i32, double, ptr, ptr, ptr, ptr, ptr, [64 x [64 x double]], [64 x [64 x float]], ptr, ptr, ptr, ptr, [64 x [64 x i32]], [64 x [65 x i8]], ptr, ptr, ptr, ptr, ptr }
%struct.AVChannelLayout = type { i32, i32, %union.anon, ptr }
%union.anon = type { i64 }
%struct.DitherContext = type { i32, i32, float, float, i32, float, float, i32, [20 x float], [64 x [40 x float]], %struct.AudioData, %struct.AudioData, i32 }
%struct.AudioData = type { [64 x ptr], ptr, i32, i32, i32, i32, i32 }

; Function Attrs: nounwind uwtable
define i32 @swr_set_matrix(ptr noundef %0, ptr noundef %1, i32 noundef %2) #0 {
  %4 = alloca i32, align 4
  %5 = alloca ptr, align 8
  %6 = alloca ptr, align 8
  %7 = alloca i32, align 4
  %8 = alloca i32, align 4
  %9 = alloca i32, align 4
  %10 = alloca i32, align 4
  %11 = alloca i32, align 4
  %12 = alloca i32, align 4
  store ptr %0, ptr %5, align 8, !tbaa !4
  store ptr %1, ptr %6, align 8, !tbaa !9
  store i32 %2, ptr %7, align 4, !tbaa !11
  call void @llvm.lifetime.start.p0(i64 4, ptr %8) #9
  call void @llvm.lifetime.start.p0(i64 4, ptr %9) #9
  call void @llvm.lifetime.start.p0(i64 4, ptr %10) #9
  call void @llvm.lifetime.start.p0(i64 4, ptr %11) #9
  %13 = load ptr, ptr %5, align 8, !tbaa !4
  %14 = icmp ne ptr %13, null
  br i1 %14, label %15, label %20

15:                                               ; preds = %3
  %16 = load ptr, ptr %5, align 8, !tbaa !4
  %17 = getelementptr inbounds nuw %struct.SwrContext, ptr %16, i32 0, i32 60
  %18 = load ptr, ptr %17, align 8, !tbaa !13
  %19 = icmp ne ptr %18, null
  br i1 %19, label %20, label %21

20:                                               ; preds = %15, %3
  store i32 -22, ptr %4, align 4
  store i32 1, ptr %12, align 4
  br label %82

21:                                               ; preds = %15
  %22 = load ptr, ptr %5, align 8, !tbaa !4
  %23 = getelementptr inbounds nuw %struct.SwrContext, ptr %22, i32 0, i32 65
  %24 = getelementptr inbounds [64 x [64 x double]], ptr %23, i64 0, i64 0
  call void @llvm.memset.p0.i64(ptr align 8 %24, i8 0, i64 32768, i1 false)
  %25 = load ptr, ptr %5, align 8, !tbaa !4
  %26 = getelementptr inbounds nuw %struct.SwrContext, ptr %25, i32 0, i32 66
  %27 = getelementptr inbounds [64 x [64 x float]], ptr %26, i64 0, i64 0
  call void @llvm.memset.p0.i64(ptr align 8 %27, i8 0, i64 16384, i1 false)
  %28 = load ptr, ptr %5, align 8, !tbaa !4
  %29 = getelementptr inbounds nuw %struct.SwrContext, ptr %28, i32 0, i32 21
  %30 = getelementptr inbounds nuw %struct.AVChannelLayout, ptr %29, i32 0, i32 1
  %31 = load i32, ptr %30, align 4, !tbaa !27
  store i32 %31, ptr %8, align 4, !tbaa !11
  %32 = load ptr, ptr %5, align 8, !tbaa !4
  %33 = getelementptr inbounds nuw %struct.SwrContext, ptr %32, i32 0, i32 22
  %34 = getelementptr inbounds nuw %struct.AVChannelLayout, ptr %33, i32 0, i32 1
  %35 = load i32, ptr %34, align 4, !tbaa !28
  store i32 %35, ptr %9, align 4, !tbaa !11
  store i32 0, ptr %11, align 4, !tbaa !11
  br label %36

36:                                               ; preds = %76, %21
  %37 = load i32, ptr %11, align 4, !tbaa !11
  %38 = load i32, ptr %9, align 4, !tbaa !11
  %39 = icmp slt i32 %37, %38
  br i1 %39, label %40, label %79

40:                                               ; preds = %36
  store i32 0, ptr %10, align 4, !tbaa !11
  br label %41

41:                                               ; preds = %68, %40
  %42 = load i32, ptr %10, align 4, !tbaa !11
  %43 = load i32, ptr %8, align 4, !tbaa !11
  %44 = icmp slt i32 %42, %43
  br i1 %44, label %45, label %71

45:                                               ; preds = %41
  %46 = load ptr, ptr %6, align 8, !tbaa !9
  %47 = load i32, ptr %10, align 4, !tbaa !11
  %48 = sext i32 %47 to i64
  %49 = getelementptr inbounds double, ptr %46, i64 %48
  %50 = load double, ptr %49, align 8, !tbaa !29
  %51 = load ptr, ptr %5, align 8, !tbaa !4
  %52 = getelementptr inbounds nuw %struct.SwrContext, ptr %51, i32 0, i32 65
  %53 = load i32, ptr %11, align 4, !tbaa !11
  %54 = sext i32 %53 to i64
  %55 = getelementptr inbounds [64 x [64 x double]], ptr %52, i64 0, i64 %54
  %56 = load i32, ptr %10, align 4, !tbaa !11
  %57 = sext i32 %56 to i64
  %58 = getelementptr inbounds [64 x double], ptr %55, i64 0, i64 %57
  store double %50, ptr %58, align 8, !tbaa !29
  %59 = fptrunc nsz double %50 to float
  %60 = load ptr, ptr %5, align 8, !tbaa !4
  %61 = getelementptr inbounds nuw %struct.SwrContext, ptr %60, i32 0, i32 66
  %62 = load i32, ptr %11, align 4, !tbaa !11
  %63 = sext i32 %62 to i64
  %64 = getelementptr inbounds [64 x [64 x float]], ptr %61, i64 0, i64 %63
  %65 = load i32, ptr %10, align 4, !tbaa !11
  %66 = sext i32 %65 to i64
  %67 = getelementptr inbounds [64 x float], ptr %64, i64 0, i64 %66
  store float %59, ptr %67, align 4, !tbaa !30
  br label %68

68:                                               ; preds = %45
  %69 = load i32, ptr %10, align 4, !tbaa !11
  %70 = add nsw i32 %69, 1
  store i32 %70, ptr %10, align 4, !tbaa !11
  br label %41, !llvm.loop !31

71:                                               ; preds = %41
  %72 = load i32, ptr %7, align 4, !tbaa !11
  %73 = load ptr, ptr %6, align 8, !tbaa !9
  %74 = sext i32 %72 to i64
  %75 = getelementptr inbounds double, ptr %73, i64 %74
  store ptr %75, ptr %6, align 8, !tbaa !9
  br label %76

76:                                               ; preds = %71
  %77 = load i32, ptr %11, align 4, !tbaa !11
  %78 = add nsw i32 %77, 1
  store i32 %78, ptr %11, align 4, !tbaa !11
  br label %36, !llvm.loop !33

79:                                               ; preds = %36
  %80 = load ptr, ptr %5, align 8, !tbaa !4
  %81 = getelementptr inbounds nuw %struct.SwrContext, ptr %80, i32 0, i32 43
  store i32 1, ptr %81, align 8, !tbaa !34
  store i32 0, ptr %4, align 4
  store i32 1, ptr %12, align 4
  br label %82

82:                                               ; preds = %79, %20
  call void @llvm.lifetime.end.p0(i64 4, ptr %11) #9
  call void @llvm.lifetime.end.p0(i64 4, ptr %10) #9
  call void @llvm.lifetime.end.p0(i64 4, ptr %9) #9
  call void @llvm.lifetime.end.p0(i64 4, ptr %8) #9
  %83 = load i32, ptr %4, align 4
  ret i32 %83
}