; Function Attrs: nofree norecurse nosync nounwind memory(argmem: readwrite) uwtable
define range(i32 -22, 1) i32 @swr_set_matrix(ptr noundef captures(address_is_null) %0, ptr noundef readonly captures(none) %1, i32 noundef %2) local_unnamed_addr #0 {
  %.not = icmp eq ptr %0, null
  br i1 %.not, label %25, label %4

4:                                                ; preds = %3
  %5 = getelementptr inbounds nuw i8, ptr %0, i64 16192
  %6 = load ptr, ptr %5, align 8, !tbaa !4
  %.not27 = icmp eq ptr %6, null
  br i1 %.not27, label %7, label %25

7:                                                ; preds = %4
  %8 = getelementptr inbounds nuw i8, ptr %0, i64 16232
  %9 = getelementptr inbounds nuw i8, ptr %0, i64 49000
  %10 = getelementptr inbounds nuw i8, ptr %0, i64 196
  tail call void @llvm.memset.p0.i64(ptr noundef nonnull align 8 dereferenceable(49152) %8, i8 0, i64 49152, i1 false)
  %11 = load i32, ptr %10, align 4, !tbaa !22
  %12 = getelementptr inbounds nuw i8, ptr %0, i64 220
  %13 = load i32, ptr %12, align 4, !tbaa !23
  %14 = icmp sgt i32 %13, 0
  br i1 %14, label %.preheader.lr.ph, label %._crit_edge31

.preheader.lr.ph:                                 ; preds = %7
  %15 = icmp sgt i32 %11, 0
  %16 = sext i32 %2 to i64
  br i1 %15, label %.preheader.us.preheader, label %._crit_edge31

.preheader.us.preheader:                          ; preds = %.preheader.lr.ph
  %wide.trip.count37 = zext nneg i32 %13 to i64
  %wide.trip.count = zext nneg i32 %11 to i64
  br label %.preheader.us

.preheader.us:                                    ; preds = %.preheader.us.preheader, %._crit_edge.us
  %indvars.iv34 = phi i64 [ 0, %.preheader.us.preheader ], [ %indvars.iv.next35, %._crit_edge.us ]
  %.02529.us = phi ptr [ %1, %.preheader.us.preheader ], [ %23, %._crit_edge.us ]
  br label %17

17:                                               ; preds = %.preheader.us, %17
  %indvars.iv = phi i64 [ 0, %.preheader.us ], [ %indvars.iv.next, %17 ]
  %18 = getelementptr inbounds nuw double, ptr %.02529.us, i64 %indvars.iv
  %19 = load double, ptr %18, align 8, !tbaa !24
  %20 = getelementptr inbounds nuw [64 x [64 x double]], ptr %8, i64 0, i64 %indvars.iv34, i64 %indvars.iv
  store double %19, ptr %20, align 8, !tbaa !24
  %21 = fptrunc nsz double %19 to float
  %22 = getelementptr inbounds nuw [64 x [64 x float]], ptr %9, i64 0, i64 %indvars.iv34, i64 %indvars.iv
  store float %21, ptr %22, align 4, !tbaa !25
  %indvars.iv.next = add nuw nsw i64 %indvars.iv, 1
  %exitcond.not = icmp eq i64 %indvars.iv.next, %wide.trip.count
  br i1 %exitcond.not, label %._crit_edge.us, label %17, !llvm.loop !26

._crit_edge.us:                                   ; preds = %17
  %23 = getelementptr inbounds double, ptr %.02529.us, i64 %16
  %indvars.iv.next35 = add nuw nsw i64 %indvars.iv34, 1
  %exitcond38.not = icmp eq i64 %indvars.iv.next35, %wide.trip.count37
  br i1 %exitcond38.not, label %._crit_edge31, label %.preheader.us, !llvm.loop !28

._crit_edge31:                                    ; preds = %._crit_edge.us, %.preheader.lr.ph, %7
  %24 = getelementptr inbounds nuw i8, ptr %0, i64 11784
  store i32 1, ptr %24, align 8, !tbaa !29
  br label %25

25:                                               ; preds = %3, %4, %._crit_edge31
  %.024 = phi i32 [ 0, %._crit_edge31 ], [ -22, %4 ], [ -22, %3 ]
  ret i32 %.024
}